target datalayout = "e-m:e-p270:32:32-p271:32:32-p272:64:64-i64:64-i128:128-f80:128-n8:16:32:64-S128"
target triple = "x86_64-pc-linux-gnu"

%"class.open3d::visualization::ViewControlWithEditing" = type <{ %"class.open3d::visualization::ViewControl.base", i32, [4 x i8], %"class.open3d::visualization::ViewParameters", i8, [15 x i8] }>
%"class.open3d::visualization::ViewControl.base" = type { ptr, i32, i32, %"class.open3d::geometry::AxisAlignedBoundingBox", %"class.Eigen::Matrix", %"class.Eigen::Matrix", %"class.Eigen::Matrix", %"class.Eigen::Matrix", %"class.Eigen::Matrix", double, double, double, double, double, double, double, double, double, [8 x i8], %"class.Eigen::Matrix.18", %"class.Eigen::Matrix.18", %"class.Eigen::Matrix.18", %"class.Eigen::Matrix.18", %"class.Eigen::Matrix", %"class.Eigen::Matrix", %"class.Eigen::Matrix", %"class.Eigen::Matrix", %"class.Eigen::Matrix", double, double }
%"class.open3d::geometry::AxisAlignedBoundingBox" = type { %"class.open3d::geometry::Geometry3D", %"class.Eigen::Matrix", %"class.Eigen::Matrix", %"class.Eigen::Matrix" }
%"class.open3d::geometry::Geometry3D" = type { %"class.open3d::geometry::Geometry" }
%"class.open3d::geometry::Geometry" = type { ptr, i32, i32, %"class.std::__cxx11::basic_string" }
%"class.std::__cxx11::basic_string" = type { %"struct.std::__cxx11::basic_string<char>::_Alloc_hider", i64, %union.anon }
%"struct.std::__cxx11::basic_string<char>::_Alloc_hider" = type { ptr }
%union.anon = type { i64, [8 x i8] }
%"class.Eigen::Matrix.18" = type { %"class.Eigen::PlainObjectBase.19" }
%"class.Eigen::PlainObjectBase.19" = type { %"class.Eigen::DenseStorage.26" }
%"class.Eigen::DenseStorage.26" = type { %"struct.Eigen::internal::plain_array.27" }
%"struct.Eigen::internal::plain_array.27" = type { [16 x float] }
%"class.Eigen::Matrix" = type { %"class.Eigen::PlainObjectBase" }
%"class.Eigen::PlainObjectBase" = type { %"class.Eigen::DenseStorage" }
%"class.Eigen::DenseStorage" = type { %"struct.Eigen::internal::plain_array" }
%"struct.Eigen::internal::plain_array" = type { [3 x double] }
%"class.open3d::visualization::ViewParameters" = type { %"class.open3d::utility::IJsonConvertible", double, double, %"class.Eigen::Matrix", %"class.Eigen::Matrix", %"class.Eigen::Matrix", %"class.Eigen::Matrix", %"class.Eigen::Matrix" }
%"class.open3d::utility::IJsonConvertible" = type { ptr }

; Function Attrs: mustprogress nounwind ssp uwtable
define linkonce_odr noundef zeroext i1 @_ZNK6open3d13visualization22ViewControlWithEditing8IsLockedEv(ptr noundef nonnull align 16 dereferenceable(881) %0) #0 comdat align 2 {
  %2 = alloca ptr, align 8
  store ptr %0, ptr %2, align 8, !tbaa !4
  %3 = load ptr, ptr %2, align 8
  %4 = getelementptr inbounds nuw %"class.open3d::visualization::ViewControlWithEditing", ptr %3, i32 0, i32 4
  %5 = load i8, ptr %4, align 16, !tbaa !177, !range !147, !noundef !148
  %6 = trunc i8 %5 to i1
  ret i1 %6
}

; Function Attrs: mustprogress ssp uwtable
define void @_ZN6open3d13visualization22ViewControlWithEditing14SetEditingModeENS1_11EditingModeE(ptr noundef nonnull align 16 dereferenceable(881) %0, i32 noundef %1) #1 align 2 {
  %3 = alloca ptr, align 8
  %4 = alloca i32, align 4
  store ptr %0, ptr %3, align 8, !tbaa !4
  store i32 %1, ptr %4, align 4, !tbaa !286
  %5 = load ptr, ptr %3, align 8
  %6 = call noundef zeroext i1 @_ZNK6open3d13visualization22ViewControlWithEditing8IsLockedEv(ptr noundef nonnull align 16 dereferenceable(881) %5)
  br i1 %6, label %7, label %8

7:                                                ; preds = %2
  br label %28

8:                                                ; preds = %2
  %9 = getelementptr inbounds nuw %"class.open3d::visualization::ViewControlWithEditing", ptr %5, i32 0, i32 1
  %10 = load i32, ptr %9, align 8, !tbaa !9
  %11 = icmp eq i32 %10, 0
  br i1 %11, label %12, label %15

12:                                               ; preds = %8
  %13 = getelementptr inbounds nuw %"class.open3d::visualization::ViewControlWithEditing", ptr %5, i32 0, i32 3
  %14 = call noundef zeroext i1 @_ZNK6open3d13visualization11ViewControl23ConvertToViewParametersERNS0_14ViewParametersE(ptr noundef nonnull align 16 dereferenceable(728) %5, ptr noundef nonnull align 8 dereferenceable(144) %13)
  br label %15

15:                                               ; preds = %12, %8
  %16 = load i32, ptr %4, align 4, !tbaa !286
  %17 = getelementptr inbounds nuw %"class.open3d::visualization::ViewControlWithEditing", ptr %5, i32 0, i32 1
  store i32 %16, ptr %17, align 8, !tbaa !9
  %18 = getelementptr inbounds nuw %"class.open3d::visualization::ViewControlWithEditing", ptr %5, i32 0, i32 1
  %19 = load i32, ptr %18, align 8, !tbaa !9
  %20 = icmp eq i32 %19, 0
  br i1 %20, label %21, label %24

21:                                               ; preds = %15
  %22 = getelementptr inbounds nuw %"class.open3d::visualization::ViewControlWithEditing", ptr %5, i32 0, i32 3
  %23 = call noundef zeroext i1 @_ZN6open3d13visualization11ViewControl25ConvertFromViewParametersERKNS0_14ViewParametersE(ptr noundef nonnull align 16 dereferenceable(728) %5, ptr noundef nonnull align 8 dereferenceable(144) %22)
  br label %28

24:                                               ; preds = %15
  %25 = load ptr, ptr %5, align 16, !tbaa !287
  %26 = getelementptr inbounds ptr, ptr %25, i64 2
  %27 = load ptr, ptr %26, align 8
  call void %27(ptr noundef nonnull align 16 dereferenceable(881) %5)
  br label %28

28:                                               ; preds = %7, %24, %21
  ret void
}