; Function Attrs: mustprogress ssp uwtable
define void @_ZN6open3d13visualization22ViewControlWithEditing14SetEditingModeENS1_11EditingModeE(ptr noundef nonnull align 16 dereferenceable(881) %0, i32 noundef %1) local_unnamed_addr #1 align 2 {
  %3 = getelementptr inbounds nuw i8, ptr %0, i64 880
  %4 = load i8, ptr %3, align 16, !tbaa !16, !range !37, !noundef !38
  %5 = trunc nuw i8 %4 to i1
  br i1 %5, label %22, label %6

6:                                                ; preds = %2
  %7 = getelementptr inbounds nuw i8, ptr %0, i64 728
  %8 = load i32, ptr %7, align 8, !tbaa !39
  %9 = icmp eq i32 %8, 0
  br i1 %9, label %10, label %13

10:                                               ; preds = %6
  %11 = getelementptr inbounds nuw i8, ptr %0, i64 736
  %12 = tail call noundef zeroext i1 @_ZNK6open3d13visualization11ViewControl23ConvertToViewParametersERNS0_14ViewParametersE(ptr noundef nonnull align 16 dereferenceable(728) %0, ptr noundef nonnull align 8 dereferenceable(144) %11)
  br label %13

13:                                               ; preds = %10, %6
  store i32 %1, ptr %7, align 8, !tbaa !39
  %14 = icmp eq i32 %1, 0
  br i1 %14, label %15, label %18

15:                                               ; preds = %13
  %16 = getelementptr inbounds nuw i8, ptr %0, i64 736
  %17 = tail call noundef zeroext i1 @_ZN6open3d13visualization11ViewControl25ConvertFromViewParametersERKNS0_14ViewParametersE(ptr noundef nonnull align 16 dereferenceable(728) %0, ptr noundef nonnull align 8 dereferenceable(144) %16)
  br label %22

18:                                               ; preds = %13
  %19 = load ptr, ptr %0, align 16, !tbaa !4
  %20 = getelementptr inbounds nuw i8, ptr %19, i64 16
  %21 = load ptr, ptr %20, align 8
  tail call void %21(ptr noundef nonnull align 16 dereferenceable(881) %0)
  br label %22

22:                                               ; preds = %2, %18, %15
  ret void
}